target datalayout = "e-m:e-p270:32:32-p271:32:32-p272:64:64-i64:64-i128:128-f80:128-n8:16:32:64-S128"
target triple = "x86_64-pc-linux-gnu"

@hf_concerned_dest_reserved = internal global i32 0, align 4
@hf_concerned_dest_pc = internal global i32 0, align 4
@.str.344 = private unnamed_addr constant [6 x i8] c" (%s)\00", align 1

; Function Attrs: null_pointer_is_valid sspstrong uwtable
define internal void @dissect_concerned_destination_parameter(ptr noundef %0, ptr noundef %1, ptr noundef %2) #0 {
  %4 = alloca ptr, align 8
  %5 = alloca ptr, align 8
  %6 = alloca ptr, align 8
  %7 = alloca ptr, align 8
  store ptr %0, ptr %4, align 8
  store ptr %1, ptr %5, align 8
  store ptr %2, ptr %6, align 8
  call void @llvm.lifetime.start.p0(i64 8, ptr %7) #6
  %8 = load ptr, ptr %5, align 8
  %9 = load i32, ptr @hf_concerned_dest_reserved, align 4
  %10 = load ptr, ptr %4, align 8
  %11 = call ptr @proto_tree_add_item(ptr noundef %8, i32 noundef %9, ptr noundef %10, i32 noundef 4, i32 noundef 1, i32 noundef 0)
  %12 = load ptr, ptr %5, align 8
  %13 = load i32, ptr @hf_concerned_dest_pc, align 4
  %14 = load ptr, ptr %4, align 8
  %15 = call ptr @proto_tree_add_item(ptr noundef %12, i32 noundef %13, ptr noundef %14, i32 noundef 5, i32 noundef 3, i32 noundef 0)
  store ptr %15, ptr %7, align 8
  %16 = call zeroext i1 @mtp3_pc_structured()
  br i1 %16, label %17, label %22

17:                                               ; preds = %3
  %18 = load ptr, ptr %7, align 8
  %19 = load ptr, ptr %4, align 8
  %20 = call i32 @tvb_get_ntoh24(ptr noundef %19, i32 noundef 5)
  %21 = call ptr @mtp3_pc_to_str(i32 noundef %20)
  call void (ptr, ptr, ...) @proto_item_append_text(ptr noundef %18, ptr noundef @.str.344, ptr noundef %21)
  br label %22

22:                                               ; preds = %17, %3
  %23 = load ptr, ptr %6, align 8
  %24 = load ptr, ptr %4, align 8
  %25 = call i32 @tvb_get_ntoh24(ptr noundef %24, i32 noundef 5)
  %26 = call ptr @mtp3_pc_to_str(i32 noundef %25)
  call void (ptr, ptr, ...) @proto_item_append_text(ptr noundef %23, ptr noundef @.str.344, ptr noundef %26)
  call void @llvm.lifetime.end.p0(i64 8, ptr %7) #6
  ret void
}