; Function Attrs: null_pointer_is_valid sspstrong uwtable
define internal fastcc void @dissect_concerned_destination_parameter(ptr noundef %0, ptr noundef %1, ptr noundef %2) unnamed_addr #0 {
  %4 = load i32, ptr @hf_concerned_dest_reserved, align 4
  %5 = tail call ptr @proto_tree_add_item(ptr noundef %1, i32 noundef %4, ptr noundef %0, i32 noundef 4, i32 noundef 1, i32 noundef 0)
  %6 = load i32, ptr @hf_concerned_dest_pc, align 4
  %7 = tail call ptr @proto_tree_add_item(ptr noundef %1, i32 noundef %6, ptr noundef %0, i32 noundef 5, i32 noundef 3, i32 noundef 0)
  %8 = tail call zeroext i1 @mtp3_pc_structured()
  br i1 %8, label %9, label %12

9:                                                ; preds = %3
  %10 = tail call i32 @tvb_get_ntoh24(ptr noundef %0, i32 noundef 5)
  %11 = tail call ptr @mtp3_pc_to_str(i32 noundef %10)
  tail call void (ptr, ptr, ...) @proto_item_append_text(ptr noundef %7, ptr noundef nonnull @.str.344, ptr noundef %11)
  br label %12

12:                                               ; preds = %9, %3
  %13 = tail call i32 @tvb_get_ntoh24(ptr noundef %0, i32 noundef 5)
  %14 = tail call ptr @mtp3_pc_to_str(i32 noundef %13)
  tail call void (ptr, ptr, ...) @proto_item_append_text(ptr noundef %2, ptr noundef nonnull @.str.344, ptr noundef %14)
  ret void
}